; Function Attrs: mustprogress uwtable
define void @_ZN8facebook5velox6common9TokenizerC2ERKNSt7__cxx1112basic_stringIcSt11char_traitsIcESaIcEEERKSt10shared_ptrINS1_10SeparatorsEE(ptr noundef nonnull align 8 dereferenceable(72) %this, ptr noundef nonnull align 8 dereferenceable(32) %path, ptr nocapture noundef nonnull readonly align 8 dereferenceable(16) %separators) unnamed_addr #0 align 2 personality ptr @__gxx_personality_v0 {
entry:
  tail call void @_ZNSt7__cxx1112basic_stringIcSt11char_traitsIcESaIcEEC1ERKS4_(ptr noundef nonnull align 8 dereferenceable(32) %this, ptr noundef nonnull align 8 dereferenceable(32) %path)
  %separators_ = getelementptr inbounds i8, ptr %this, i64 32
  %0 = load ptr, ptr %separators, align 8
  store ptr %0, ptr %separators_, align 8
  %_M_refcount.i.i = getelementptr inbounds i8, ptr %this, i64 40
  %_M_refcount3.i.i = getelementptr inbounds i8, ptr %separators, i64 8
  %1 = load ptr, ptr %_M_refcount3.i.i, align 8
  store ptr %1, ptr %_M_refcount.i.i, align 8
  %cmp.not.i.i.i = icmp eq ptr %1, null
  br i1 %cmp.not.i.i.i, label %_ZNSt10shared_ptrIN8facebook5velox6common10SeparatorsEEC2ERKS4_.exit, label %if.then.i.i.i

if.then.i.i.i:                                    ; preds = %entry
  %_M_use_count.i.i.i.i = getelementptr inbounds i8, ptr %1, i64 8
  %2 = load i8, ptr @__libc_single_threaded, align 1
  %tobool.i.not.i.i.i.i = icmp eq i8 %2, 0
  br i1 %tobool.i.not.i.i.i.i, label %if.else.i.i.i.i.i, label %if.then.i.i.i.i.i

if.then.i.i.i.i.i:                                ; preds = %if.then.i.i.i
  %3 = load i32, ptr %_M_use_count.i.i.i.i, align 4
  %add.i.i.i.i.i = add nsw i32 %3, 1
  store i32 %add.i.i.i.i.i, ptr %_M_use_count.i.i.i.i, align 4
  br label %_ZNSt10shared_ptrIN8facebook5velox6common10SeparatorsEEC2ERKS4_.exit

if.else.i.i.i.i.i:                                ; preds = %if.then.i.i.i
  %4 = atomicrmw volatile add ptr %_M_use_count.i.i.i.i, i32 1 acq_rel, align 4
  br label %_ZNSt10shared_ptrIN8facebook5velox6common10SeparatorsEEC2ERKS4_.exit

_ZNSt10shared_ptrIN8facebook5velox6common10SeparatorsEEC2ERKS4_.exit: ; preds = %entry, %if.then.i.i.i.i.i, %if.else.i.i.i.i.i
  %firstSegment = getelementptr inbounds i8, ptr %this, i64 56
  store i8 1, ptr %firstSegment, align 8
  %next_ = getelementptr inbounds i8, ptr %this, i64 64
  store ptr null, ptr %next_, align 8
  %state = getelementptr inbounds i8, ptr %this, i64 52
  store i32 1, ptr %state, align 4
  %index_ = getelementptr inbounds i8, ptr %this, i64 48
  store i32 0, ptr %index_, align 8
  ret void
}